; Function Attrs: mustprogress uwtable
define void @_ZN7rocksdb20NewWritableCacheFileEPNS_3EnvERKNSt7__cxx1112basic_stringIcSt11char_traitsIcESaIcEEEPSt10unique_ptrINS_12WritableFileESt14default_deleteISB_EEb(ptr noalias sret(%"class.rocksdb::Status") align 8 %agg.result, ptr noundef %env, ptr noundef nonnull align 8 dereferenceable(32) %filepath, ptr noundef %file, i1 noundef zeroext %use_direct_writes) local_unnamed_addr #0 {
entry:
  %opt = alloca %"struct.rocksdb::EnvOptions", align 8
  %frombool = zext i1 %use_direct_writes to i8
  call void @_ZN7rocksdb10EnvOptionsC1Ev(ptr noundef nonnull align 8 dereferenceable(56) %opt)
  %use_direct_writes1 = getelementptr inbounds i8, ptr %opt, i64 3
  store i8 %frombool, ptr %use_direct_writes1, align 1
  %vtable = load ptr, ptr %env, align 8
  %vfn = getelementptr inbounds i8, ptr %vtable, i64 184
  %0 = load ptr, ptr %vfn, align 8
  call void %0(ptr sret(%"class.rocksdb::Status") align 8 %agg.result, ptr noundef nonnull align 8 dereferenceable(72) %env, ptr noundef nonnull align 8 dereferenceable(32) %filepath, ptr noundef %file, ptr noundef nonnull align 8 dereferenceable(56) %opt)
  ret void
}